
_retour:

;CodeProjet.c,28 :: 		unsigned retour(){                 // retour à 0
;CodeProjet.c,29 :: 		PORTA = 0;
	CLRF       PORTA+0
;CodeProjet.c,30 :: 		PORTB = 0;
	CLRF       PORTB+0
;CodeProjet.c,31 :: 		PORTC = 0;
	CLRF       PORTC+0
;CodeProjet.c,32 :: 		PORTD = 0;
	CLRF       PORTD+0
;CodeProjet.c,33 :: 		PORTE = 0;
	CLRF       PORTE+0
;CodeProjet.c,34 :: 		}
L_end_retour:
	RETURN
; end of _retour

_main:

;CodeProjet.c,36 :: 		void main () {
;CodeProjet.c,38 :: 		unsigned res = 0;
	CLRF       main_res_L0+0
	CLRF       main_res_L0+1
;CodeProjet.c,41 :: 		OPTION_REG = 0b10000111;         // Mise du timer 256 bits
	MOVLW      135
	MOVWF      OPTION_REG+0
;CodeProjet.c,43 :: 		PORTA = 0;                        // State reset of Input-Output Ports
	CLRF       PORTA+0
;CodeProjet.c,44 :: 		PORTB = 0;
	CLRF       PORTB+0
;CodeProjet.c,45 :: 		PORTC = 0;
	CLRF       PORTC+0
;CodeProjet.c,46 :: 		PORTD = 0;
	CLRF       PORTD+0
;CodeProjet.c,47 :: 		PORTE = 0;
	CLRF       PORTE+0
;CodeProjet.c,48 :: 		TRISA.TRISA5 = 0;                 // Configuration in output of RA1, RA2, RA3
	BCF        TRISA+0, 5
;CodeProjet.c,49 :: 		TRISA.TRISA2 = 0;                 // RB2, RB3, RC1, RC3 and RD0 pins
	BCF        TRISA+0, 2
;CodeProjet.c,50 :: 		TRISE.TRISE0 = 0;                 // --> to control lamps L0 to L7
	BCF        TRISE+0, 0
;CodeProjet.c,51 :: 		TRISE.TRISE1 = 0;
	BCF        TRISE+0, 1
;CodeProjet.c,52 :: 		TRISE.TRISE2 = 0;
	BCF        TRISE+0, 2
;CodeProjet.c,53 :: 		TRISE.TRISE3 = 0;
	BCF        TRISE+0, 3
;CodeProjet.c,54 :: 		TRISC.TRISC2 = 0;
	BCF        TRISC+0, 2
;CodeProjet.c,55 :: 		TRISC.TRISC3 = 0;
	BCF        TRISC+0, 3
;CodeProjet.c,56 :: 		TRISC.TRISC4 = 0;
	BCF        TRISC+0, 4
;CodeProjet.c,57 :: 		TRISC.TRISC5 = 0;
	BCF        TRISC+0, 5
;CodeProjet.c,58 :: 		TRISD.TRISD2 = 0;
	BCF        TRISD+0, 2
;CodeProjet.c,59 :: 		TRISD.TRISD3 = 0;
	BCF        TRISD+0, 3
;CodeProjet.c,60 :: 		TRISD.TRISD4 = 0;
	BCF        TRISD+0, 4
;CodeProjet.c,61 :: 		TRISD.TRISD5 = 0;
	BCF        TRISD+0, 5
;CodeProjet.c,63 :: 		TRISB.TRISB6 = 1;
	BSF        TRISB+0, 6
;CodeProjet.c,64 :: 		TRISB.TRISB7 = 1;
	BSF        TRISB+0, 7
;CodeProjet.c,66 :: 		TRISD.TRISD0 = 1;
	BSF        TRISD+0, 0
;CodeProjet.c,67 :: 		TRISD.TRISD1 = 1;
	BSF        TRISD+0, 1
;CodeProjet.c,68 :: 		TRISC.TRISC0 = 1;
	BSF        TRISC+0, 0
;CodeProjet.c,70 :: 		TRISA.TRISA3 = 1;
	BSF        TRISA+0, 3
;CodeProjet.c,72 :: 		ANSEL  = 0;                       // Input-Output are all digital
	CLRF       ANSEL+0
;CodeProjet.c,73 :: 		ANSEL.ANS3 = 1;
	BSF        ANSEL+0, 3
;CodeProjet.c,74 :: 		ANSELH = 0;
	CLRF       ANSELH+0
;CodeProjet.c,75 :: 		IOCB.IOCB6 = 1;
	BSF        IOCB+0, 6
;CodeProjet.c,76 :: 		IOCB.IOCB7 = 1;
	BSF        IOCB+0, 7
;CodeProjet.c,77 :: 		INTCON = 0b10101000;
	MOVLW      168
	MOVWF      INTCON+0
;CodeProjet.c,79 :: 		ADCON0.ADCS1 = 1;                // ? commenter
	BSF        ADCON0+0, 7
;CodeProjet.c,80 :: 		ADCON0.ADCS0 = 0;
	BCF        ADCON0+0, 6
;CodeProjet.c,82 :: 		ADCON1.VCFG1 = 0;                // ? commenter
	BCF        ADCON1+0, 5
;CodeProjet.c,83 :: 		ADCON1.VCFG0 = 0;
	BCF        ADCON1+0, 4
;CodeProjet.c,85 :: 		ADCON0.CHS3 = 0;                 // Le potentionmètre est branché sur AN3
	BCF        ADCON0+0, 5
;CodeProjet.c,86 :: 		ADCON0.CHS2 = 0;
	BCF        ADCON0+0, 4
;CodeProjet.c,87 :: 		ADCON0.CHS1 = 1;
	BSF        ADCON0+0, 3
;CodeProjet.c,88 :: 		ADCON0.CHS0 = 1;
	BSF        ADCON0+0, 2
;CodeProjet.c,89 :: 		ADCON1.ADFM = 1;
	BSF        ADCON1+0, 7
;CodeProjet.c,91 :: 		ADCON0.ADON = 1;
	BSF        ADCON0+0, 0
;CodeProjet.c,93 :: 		C1ON_bit = 0;                    // Disable all comparators
	BCF        C1ON_bit+0, BitPos(C1ON_bit+0)
;CodeProjet.c,94 :: 		C2ON_bit = 0;
	BCF        C2ON_bit+0, BitPos(C2ON_bit+0)
;CodeProjet.c,96 :: 		TMR0  = 60;                    // Valeur de TMRO pour obtenir un temps d'incrémentation de 0.025s
	MOVLW      60
	MOVWF      TMR0+0
;CodeProjet.c,98 :: 		Lcd_Init();
	CALL       _Lcd_Init+0
;CodeProjet.c,99 :: 		Lcd_Cmd(_LCD_CLEAR);
	MOVLW      1
	MOVWF      FARG_Lcd_Cmd_out_char+0
	CALL       _Lcd_Cmd+0
;CodeProjet.c,100 :: 		Lcd_Cmd(_LCD_CURSOR_OFF);
	MOVLW      12
	MOVWF      FARG_Lcd_Cmd_out_char+0
	CALL       _Lcd_Cmd+0
;CodeProjet.c,101 :: 		Lcd_Out(1,6,txt1);
	MOVLW      1
	MOVWF      FARG_Lcd_Out_row+0
	MOVLW      6
	MOVWF      FARG_Lcd_Out_column+0
	MOVLW      _txt1+0
	MOVWF      FARG_Lcd_Out_text+0
	CALL       _Lcd_Out+0
;CodeProjet.c,103 :: 		do {
L_main0:
;CodeProjet.c,105 :: 		if (PORTC.RC0 == 1) {
	BTFSS      PORTC+0, 0
	GOTO       L_main3
;CodeProjet.c,106 :: 		Lcd_Cmd(_LCD_CLEAR);
	MOVLW      1
	MOVWF      FARG_Lcd_Cmd_out_char+0
	CALL       _Lcd_Cmd+0
;CodeProjet.c,107 :: 		Lcd_Cmd(_LCD_CURSOR_OFF);          // Cursor of
	MOVLW      12
	MOVWF      FARG_Lcd_Cmd_out_char+0
	CALL       _Lcd_Cmd+0
;CodeProjet.c,108 :: 		Lcd_Out(1,6,txt1);
	MOVLW      1
	MOVWF      FARG_Lcd_Out_row+0
	MOVLW      6
	MOVWF      FARG_Lcd_Out_column+0
	MOVLW      _txt1+0
	MOVWF      FARG_Lcd_Out_text+0
	CALL       _Lcd_Out+0
;CodeProjet.c,109 :: 		}
L_main3:
;CodeProjet.c,111 :: 		if (PORTD.RD0 == 1){
	BTFSS      PORTD+0, 0
	GOTO       L_main4
;CodeProjet.c,112 :: 		Lcd_Cmd(_LCD_CLEAR);
	MOVLW      1
	MOVWF      FARG_Lcd_Cmd_out_char+0
	CALL       _Lcd_Cmd+0
;CodeProjet.c,113 :: 		Lcd_Cmd(_LCD_CURSOR_OFF);                 // Write text in first row
	MOVLW      12
	MOVWF      FARG_Lcd_Cmd_out_char+0
	CALL       _Lcd_Cmd+0
;CodeProjet.c,114 :: 		Lcd_Out(1,6,txt2);
	MOVLW      1
	MOVWF      FARG_Lcd_Out_row+0
	MOVLW      6
	MOVWF      FARG_Lcd_Out_column+0
	MOVLW      _txt2+0
	MOVWF      FARG_Lcd_Out_text+0
	CALL       _Lcd_Out+0
;CodeProjet.c,115 :: 		}
L_main4:
;CodeProjet.c,117 :: 		if (PORTD.RD1 == 1) {
	BTFSS      PORTD+0, 1
	GOTO       L_main5
;CodeProjet.c,118 :: 		Lcd_Cmd(_LCD_CLEAR);
	MOVLW      1
	MOVWF      FARG_Lcd_Cmd_out_char+0
	CALL       _Lcd_Cmd+0
;CodeProjet.c,119 :: 		Lcd_Cmd(_LCD_CURSOR_OFF);               // Clear display
	MOVLW      12
	MOVWF      FARG_Lcd_Cmd_out_char+0
	CALL       _Lcd_Cmd+0
;CodeProjet.c,120 :: 		Lcd_Out(1,6,txt3);
	MOVLW      1
	MOVWF      FARG_Lcd_Out_row+0
	MOVLW      6
	MOVWF      FARG_Lcd_Out_column+0
	MOVLW      _txt3+0
	MOVWF      FARG_Lcd_Out_text+0
	CALL       _Lcd_Out+0
;CodeProjet.c,121 :: 		}
L_main5:
;CodeProjet.c,123 :: 		res = ReadADC();
	CALL       _ReadADC+0
	MOVF       R0+0, 0
	MOVWF      main_res_L0+0
	MOVF       R0+1, 0
	MOVWF      main_res_L0+1
;CodeProjet.c,125 :: 		if (res < 210) {                                        // définition des valeurs potentiomètre
	MOVLW      0
	SUBWF      R0+1, 0
	BTFSS      STATUS+0, 2
	GOTO       L__main37
	MOVLW      210
	SUBWF      R0+0, 0
L__main37:
	BTFSC      STATUS+0, 0
	GOTO       L_main6
;CodeProjet.c,126 :: 		clk = 40;
	MOVLW      40
	MOVWF      _clk+0
	MOVLW      0
	MOVWF      _clk+1
;CodeProjet.c,127 :: 		}
	GOTO       L_main7
L_main6:
;CodeProjet.c,129 :: 		else if ( res < 619){
	MOVLW      2
	SUBWF      main_res_L0+1, 0
	BTFSS      STATUS+0, 2
	GOTO       L__main38
	MOVLW      107
	SUBWF      main_res_L0+0, 0
L__main38:
	BTFSC      STATUS+0, 0
	GOTO       L_main8
;CodeProjet.c,130 :: 		clk = 20;
	MOVLW      20
	MOVWF      _clk+0
	MOVLW      0
	MOVWF      _clk+1
;CodeProjet.c,131 :: 		}
	GOTO       L_main9
L_main8:
;CodeProjet.c,134 :: 		clk = 10;
	MOVLW      10
	MOVWF      _clk+0
	MOVLW      0
	MOVWF      _clk+1
;CodeProjet.c,135 :: 		}
L_main9:
L_main7:
;CodeProjet.c,137 :: 		if (mode == 0 ){
	MOVF       _mode+0, 0
	XORLW      0
	BTFSS      STATUS+0, 2
	GOTO       L_main10
;CodeProjet.c,140 :: 		if (sens == 0) {
	MOVF       _sens+0, 0
	XORLW      0
	BTFSS      STATUS+0, 2
	GOTO       L_main11
;CodeProjet.c,141 :: 		if (cnt>= clk ) {
	MOVF       _clk+1, 0
	SUBWF      _cnt+1, 0
	BTFSS      STATUS+0, 2
	GOTO       L__main39
	MOVF       _clk+0, 0
	SUBWF      _cnt+0, 0
L__main39:
	BTFSS      STATUS+0, 0
	GOTO       L_main12
;CodeProjet.c,142 :: 		PORTD = PORTD << 1;
	MOVF       PORTD+0, 0
	MOVWF      R0+0
	RLF        R0+0, 1
	BCF        R0+0, 0
	MOVF       R0+0, 0
	MOVWF      PORTD+0
;CodeProjet.c,143 :: 		cnt=0;
	CLRF       _cnt+0
	CLRF       _cnt+1
;CodeProjet.c,144 :: 		if (PORTD==0b01000000 || PORTD == 0){
	MOVF       PORTD+0, 0
	XORLW      64
	BTFSC      STATUS+0, 2
	GOTO       L__main34
	MOVF       PORTD+0, 0
	XORLW      0
	BTFSC      STATUS+0, 2
	GOTO       L__main34
	GOTO       L_main15
L__main34:
;CodeProjet.c,145 :: 		PORTD = 0b00000100;
	MOVLW      4
	MOVWF      PORTD+0
;CodeProjet.c,146 :: 		}
L_main15:
;CodeProjet.c,147 :: 		}
L_main12:
;CodeProjet.c,148 :: 		}
	GOTO       L_main16
L_main11:
;CodeProjet.c,151 :: 		if (cnt>= clk) {
	MOVF       _clk+1, 0
	SUBWF      _cnt+1, 0
	BTFSS      STATUS+0, 2
	GOTO       L__main40
	MOVF       _clk+0, 0
	SUBWF      _cnt+0, 0
L__main40:
	BTFSS      STATUS+0, 0
	GOTO       L_main17
;CodeProjet.c,152 :: 		PORTD = PORTD >> 1;
	MOVF       PORTD+0, 0
	MOVWF      R0+0
	RRF        R0+0, 1
	BCF        R0+0, 7
	MOVF       R0+0, 0
	MOVWF      PORTD+0
;CodeProjet.c,153 :: 		cnt=0;
	CLRF       _cnt+0
	CLRF       _cnt+1
;CodeProjet.c,154 :: 		if (PORTD == 0b00000010 || PORTD == 0){
	MOVF       PORTD+0, 0
	XORLW      2
	BTFSC      STATUS+0, 2
	GOTO       L__main33
	MOVF       PORTD+0, 0
	XORLW      0
	BTFSC      STATUS+0, 2
	GOTO       L__main33
	GOTO       L_main20
L__main33:
;CodeProjet.c,155 :: 		PORTD = 0b00100000;
	MOVLW      32
	MOVWF      PORTD+0
;CodeProjet.c,156 :: 		}
L_main20:
;CodeProjet.c,157 :: 		}
L_main17:
;CodeProjet.c,158 :: 		}
L_main16:
;CodeProjet.c,159 :: 		}
	GOTO       L_main21
L_main10:
;CodeProjet.c,162 :: 		if (sens == 0) {
	MOVF       _sens+0, 0
	XORLW      0
	BTFSS      STATUS+0, 2
	GOTO       L_main22
;CodeProjet.c,163 :: 		ret= retour();
	CALL       _retour+0
	MOVF       R0+0, 0
	MOVWF      _ret+0
	MOVF       R0+1, 0
	MOVWF      _ret+1
;CodeProjet.c,165 :: 		PORTA.RA2 = display_lamps;          // RA1, RA2, RA3, RB2, RB3, RC1, RC3 and RD0
	BTFSC      _display_lamps+0, 0
	GOTO       L__main41
	BCF        PORTA+0, 2
	GOTO       L__main42
L__main41:
	BSF        PORTA+0, 2
L__main42:
;CodeProjet.c,166 :: 		PORTE.RE1 = display_lamps;          // are set ON if display_lamps = 1
	BTFSC      _display_lamps+0, 0
	GOTO       L__main43
	BCF        PORTE+0, 1
	GOTO       L__main44
L__main43:
	BSF        PORTE+0, 1
L__main44:
;CodeProjet.c,167 :: 		PORTC.RC2 = display_lamps;          // are set OFF if display_lamps = 0
	BTFSC      _display_lamps+0, 0
	GOTO       L__main45
	BCF        PORTC+0, 2
	GOTO       L__main46
L__main45:
	BSF        PORTC+0, 2
L__main46:
;CodeProjet.c,168 :: 		PORTC.RC4 = display_lamps;
	BTFSC      _display_lamps+0, 0
	GOTO       L__main47
	BCF        PORTC+0, 4
	GOTO       L__main48
L__main47:
	BSF        PORTC+0, 4
L__main48:
;CodeProjet.c,169 :: 		PORTC.RC5 = display_lamps;
	BTFSC      _display_lamps+0, 0
	GOTO       L__main49
	BCF        PORTC+0, 5
	GOTO       L__main50
L__main49:
	BSF        PORTC+0, 5
L__main50:
;CodeProjet.c,170 :: 		PORTD.RD3 = display_lamps;
	BTFSC      _display_lamps+0, 0
	GOTO       L__main51
	BCF        PORTD+0, 3
	GOTO       L__main52
L__main51:
	BSF        PORTD+0, 3
L__main52:
;CodeProjet.c,171 :: 		PORTD.RD4 = display_lamps;
	BTFSC      _display_lamps+0, 0
	GOTO       L__main53
	BCF        PORTD+0, 4
	GOTO       L__main54
L__main53:
	BSF        PORTD+0, 4
L__main54:
;CodeProjet.c,172 :: 		PORTD.RD5 = display_lamps;
	BTFSC      _display_lamps+0, 0
	GOTO       L__main55
	BCF        PORTD+0, 5
	GOTO       L__main56
L__main55:
	BSF        PORTD+0, 5
L__main56:
;CodeProjet.c,175 :: 		if (cnt >= clk) {                                 // utilisation du timer
	MOVF       _clk+1, 0
	SUBWF      _cnt+1, 0
	BTFSS      STATUS+0, 2
	GOTO       L__main57
	MOVF       _clk+0, 0
	SUBWF      _cnt+0, 0
L__main57:
	BTFSS      STATUS+0, 0
	GOTO       L_main23
;CodeProjet.c,177 :: 		display_lamps = ~ display_lamps;
	COMF       _display_lamps+0, 1
;CodeProjet.c,179 :: 		cnt =0;
	CLRF       _cnt+0
	CLRF       _cnt+1
;CodeProjet.c,180 :: 		}
L_main23:
;CodeProjet.c,181 :: 		}
	GOTO       L_main24
L_main22:
;CodeProjet.c,184 :: 		ret = retour();
	CALL       _retour+0
	MOVF       R0+0, 0
	MOVWF      _ret+0
	MOVF       R0+1, 0
	MOVWF      _ret+1
;CodeProjet.c,185 :: 		PORTA.RA5 = display_lamps;          // RA1, RA2, RA3, RB2, RB3, RC1, RC3 and RD0
	BTFSC      _display_lamps+0, 0
	GOTO       L__main58
	BCF        PORTA+0, 5
	GOTO       L__main59
L__main58:
	BSF        PORTA+0, 5
L__main59:
;CodeProjet.c,186 :: 		PORTE.RE0 = display_lamps;          // are set ON if display_lamps = 1
	BTFSC      _display_lamps+0, 0
	GOTO       L__main60
	BCF        PORTE+0, 0
	GOTO       L__main61
L__main60:
	BSF        PORTE+0, 0
L__main61:
;CodeProjet.c,187 :: 		PORTE.RE2 = display_lamps;          // are set OFF if display_lamps = 0
	BTFSC      _display_lamps+0, 0
	GOTO       L__main62
	BCF        PORTE+0, 2
	GOTO       L__main63
L__main62:
	BSF        PORTE+0, 2
L__main63:
;CodeProjet.c,188 :: 		PORTC.RC2 = display_lamps;
	BTFSC      _display_lamps+0, 0
	GOTO       L__main64
	BCF        PORTC+0, 2
	GOTO       L__main65
L__main64:
	BSF        PORTC+0, 2
L__main65:
;CodeProjet.c,189 :: 		PORTC.RC3 = display_lamps;
	BTFSC      _display_lamps+0, 0
	GOTO       L__main66
	BCF        PORTC+0, 3
	GOTO       L__main67
L__main66:
	BSF        PORTC+0, 3
L__main67:
;CodeProjet.c,190 :: 		PORTD.RD2 = display_lamps;
	BTFSC      _display_lamps+0, 0
	GOTO       L__main68
	BCF        PORTD+0, 2
	GOTO       L__main69
L__main68:
	BSF        PORTD+0, 2
L__main69:
;CodeProjet.c,191 :: 		PORTD.RD3 = display_lamps;
	BTFSC      _display_lamps+0, 0
	GOTO       L__main70
	BCF        PORTD+0, 3
	GOTO       L__main71
L__main70:
	BSF        PORTD+0, 3
L__main71:
;CodeProjet.c,192 :: 		PORTD.RD4 = display_lamps;
	BTFSC      _display_lamps+0, 0
	GOTO       L__main72
	BCF        PORTD+0, 4
	GOTO       L__main73
L__main72:
	BSF        PORTD+0, 4
L__main73:
;CodeProjet.c,194 :: 		if (cnt >= clk ) {
	MOVF       _clk+1, 0
	SUBWF      _cnt+1, 0
	BTFSS      STATUS+0, 2
	GOTO       L__main74
	MOVF       _clk+0, 0
	SUBWF      _cnt+0, 0
L__main74:
	BTFSS      STATUS+0, 0
	GOTO       L_main25
;CodeProjet.c,196 :: 		display_lamps = ~display_lamps;
	COMF       _display_lamps+0, 1
;CodeProjet.c,198 :: 		cnt =0;
	CLRF       _cnt+0
	CLRF       _cnt+1
;CodeProjet.c,199 :: 		}
L_main25:
;CodeProjet.c,201 :: 		}
L_main24:
;CodeProjet.c,203 :: 		}
L_main21:
;CodeProjet.c,204 :: 		} while (1);
	GOTO       L_main0
;CodeProjet.c,205 :: 		}
L_end_main:
	GOTO       $+0
; end of _main

_ReadADC:

;CodeProjet.c,207 :: 		unsigned ReadADC() {
;CodeProjet.c,210 :: 		Delay_us(4);
	MOVLW      2
	MOVWF      R13+0
L_ReadADC26:
	DECFSZ     R13+0, 1
	GOTO       L_ReadADC26
	NOP
;CodeProjet.c,212 :: 		ADCON0.GO = 1;
	BSF        ADCON0+0, 1
;CodeProjet.c,213 :: 		while(ADCON0.GO);
L_ReadADC27:
	BTFSS      ADCON0+0, 1
	GOTO       L_ReadADC28
	GOTO       L_ReadADC27
L_ReadADC28:
;CodeProjet.c,215 :: 		result = ADRESH*256 + ADRESL;
	MOVF       ADRESH+0, 0
	MOVWF      R0+1
	CLRF       R0+0
	MOVF       ADRESL+0, 0
	ADDWF      R0+0, 1
	BTFSC      STATUS+0, 0
	INCF       R0+1, 1
;CodeProjet.c,217 :: 		return result;
;CodeProjet.c,218 :: 		}
L_end_ReadADC:
	RETURN
; end of _ReadADC

_interrupt:
	MOVWF      R15+0
	SWAPF      STATUS+0, 0
	CLRF       STATUS+0
	MOVWF      ___saveSTATUS+0
	MOVF       PCLATH+0, 0
	MOVWF      ___savePCLATH+0
	CLRF       PCLATH+0

;CodeProjet.c,220 :: 		void interrupt() {
;CodeProjet.c,221 :: 		if(INTCON.RBIF == 1) {
	BTFSS      INTCON+0, 0
	GOTO       L_interrupt29
;CodeProjet.c,222 :: 		if(PORTB.RB6 == 1) {
	BTFSS      PORTB+0, 6
	GOTO       L_interrupt30
;CodeProjet.c,223 :: 		retour();
	CALL       _retour+0
;CodeProjet.c,224 :: 		mode = ~mode;
	COMF       _mode+0, 1
;CodeProjet.c,226 :: 		}
L_interrupt30:
;CodeProjet.c,228 :: 		if(PORTB.RB7 == 1) {
	BTFSS      PORTB+0, 7
	GOTO       L_interrupt31
;CodeProjet.c,229 :: 		retour();
	CALL       _retour+0
;CodeProjet.c,230 :: 		sens = ~sens;
	COMF       _sens+0, 1
;CodeProjet.c,231 :: 		}
L_interrupt31:
;CodeProjet.c,233 :: 		INTCON.RBIF = 0;
	BCF        INTCON+0, 0
;CodeProjet.c,234 :: 		}
L_interrupt29:
;CodeProjet.c,236 :: 		if (TMR0IF_bit) {
	BTFSS      TMR0IF_bit+0, BitPos(TMR0IF_bit+0)
	GOTO       L_interrupt32
;CodeProjet.c,237 :: 		cnt++;
	INCF       _cnt+0, 1
	BTFSC      STATUS+0, 2
	INCF       _cnt+1, 1
;CodeProjet.c,238 :: 		TMR0IF_bit = 0;
	BCF        TMR0IF_bit+0, BitPos(TMR0IF_bit+0)
;CodeProjet.c,239 :: 		TMR0   = 60;
	MOVLW      60
	MOVWF      TMR0+0
;CodeProjet.c,240 :: 		}
L_interrupt32:
;CodeProjet.c,241 :: 		}
L_end_interrupt:
L__interrupt77:
	MOVF       ___savePCLATH+0, 0
	MOVWF      PCLATH+0
	SWAPF      ___saveSTATUS+0, 0
	MOVWF      STATUS+0
	SWAPF      R15+0, 1
	SWAPF      R15+0, 0
	RETFIE
; end of _interrupt
